; Function Attrs: mustprogress uwtable
define void @_ZN5boost9unit_test23unit_test_log_formatter15log_entry_valueERSoRKNS0_12lazy_ostreamE(ptr noundef nonnull align 8 dereferenceable(12) %0, ptr noundef nonnull align 8 dereferenceable(8) %1, ptr noundef nonnull align 8 dereferenceable(9) %2) unnamed_addr #4 align 2 personality ptr @__gxx_personality_v0 {
  %4 = alloca %"class.boost::unit_test::basic_cstring", align 8
  %5 = alloca %"class.boost::basic_wrap_stringstream", align 8
  call void @llvm.lifetime.start.p0(i64 408, ptr nonnull %5) #27
  call void @llvm.memset.p0.i64(ptr noundef nonnull align 8 dereferenceable(408) %5, i8 0, i64 408, i1 false)
  call void @_ZNSt7__cxx1119basic_ostringstreamIcSt11char_traitsIcESaIcEEC1Ev(ptr noundef nonnull align 8 dereferenceable(408) %5)
  %6 = getelementptr inbounds nuw i8, ptr %5, i64 376
  %7 = getelementptr inbounds nuw i8, ptr %5, i64 392
  store ptr %7, ptr %6, align 8, !tbaa !87
  %8 = getelementptr inbounds nuw i8, ptr %5, i64 384
  store i64 0, ptr %8, align 8, !tbaa !55
  store i8 0, ptr %7, align 8, !tbaa !64
  %9 = load ptr, ptr %2, align 8, !tbaa !33
  %10 = getelementptr inbounds i8, ptr %9, i64 16
  %11 = load ptr, ptr %10, align 8
  %12 = invoke noundef nonnull align 8 dereferenceable(8) ptr %11(ptr noundef nonnull align 8 dereferenceable(9) %2, ptr noundef nonnull align 8 dereferenceable(408) %5)
          to label %_ZN5boostlsIcNS_9unit_test12lazy_ostreamEEERNS_23basic_wrap_stringstreamIT_EES6_RKT0_.exit unwind label %47

_ZN5boostlsIcNS_9unit_test12lazy_ostreamEEERNS_23basic_wrap_stringstreamIT_EES6_RKT0_.exit: ; preds = %3
  %13 = invoke noundef nonnull align 8 dereferenceable(32) ptr @_ZN5boost23basic_wrap_stringstreamIcE3strB5cxx11Ev(ptr noundef nonnull align 8 dereferenceable(408) %5)
          to label %14 unwind label %47

14:                                               ; preds = %_ZN5boostlsIcNS_9unit_test12lazy_ostreamEEERNS_23basic_wrap_stringstreamIT_EES6_RKT0_.exit
  %15 = load ptr, ptr %13, align 8, !tbaa !54
  store ptr %15, ptr %4, align 8, !tbaa !41
  %16 = getelementptr inbounds nuw i8, ptr %4, i64 8
  %17 = getelementptr inbounds nuw i8, ptr %13, i64 8
  %18 = load i64, ptr %17, align 8, !tbaa !55
  %19 = getelementptr inbounds nuw i8, ptr %15, i64 %18
  store ptr %19, ptr %16, align 8, !tbaa !42
  %20 = load ptr, ptr %0, align 8, !tbaa !33
  %21 = getelementptr inbounds i8, ptr %20, i64 112
  %22 = load ptr, ptr %21, align 8
  invoke void %22(ptr noundef nonnull align 8 dereferenceable(12) %0, ptr noundef nonnull align 8 dereferenceable(8) %1, ptr noundef nonnull %4)
          to label %23 unwind label %47

23:                                               ; preds = %14
  %24 = load ptr, ptr %6, align 8, !tbaa !54
  %25 = icmp eq ptr %24, %7
  br i1 %25, label %_ZNKSt7__cxx1112basic_stringIcSt11char_traitsIcESaIcEE11_M_is_localEv.exit.thread.i.i.i, label %_ZNKSt7__cxx1112basic_stringIcSt11char_traitsIcESaIcEE11_M_is_localEv.exit.i.i.i

_ZNKSt7__cxx1112basic_stringIcSt11char_traitsIcESaIcEE11_M_is_localEv.exit.thread.i.i.i: ; preds = %23
  %26 = load i64, ptr %8, align 8, !tbaa !55
  %27 = icmp ult i64 %26, 16
  call void @llvm.assume(i1 %27)
  br label %_ZNSt7__cxx1112basic_stringIcSt11char_traitsIcESaIcEED2Ev.exit.i

_ZNKSt7__cxx1112basic_stringIcSt11char_traitsIcESaIcEE11_M_is_localEv.exit.i.i.i: ; preds = %23
  %28 = load i64, ptr %7, align 8, !tbaa !64
  %29 = add i64 %28, 1
  call void @_ZdlPvm(ptr noundef %24, i64 noundef %29) #31
  br label %_ZNSt7__cxx1112basic_stringIcSt11char_traitsIcESaIcEED2Ev.exit.i

_ZNSt7__cxx1112basic_stringIcSt11char_traitsIcESaIcEED2Ev.exit.i: ; preds = %_ZNKSt7__cxx1112basic_stringIcSt11char_traitsIcESaIcEE11_M_is_localEv.exit.i.i.i, %_ZNKSt7__cxx1112basic_stringIcSt11char_traitsIcESaIcEE11_M_is_localEv.exit.thread.i.i.i
  %30 = load ptr, ptr @_ZTTNSt7__cxx1119basic_ostringstreamIcSt11char_traitsIcESaIcEEE, align 8
  store ptr %30, ptr %5, align 8, !tbaa !33
  %31 = load ptr, ptr getelementptr inbounds (i8, ptr @_ZTTNSt7__cxx1119basic_ostringstreamIcSt11char_traitsIcESaIcEEE, i64 24), align 8
  %32 = getelementptr i8, ptr %30, i64 -24
  %33 = load i64, ptr %32, align 8
  %34 = getelementptr inbounds i8, ptr %5, i64 %33
  store ptr %31, ptr %34, align 8, !tbaa !33
  %35 = getelementptr inbounds nuw i8, ptr %5, i64 8
  store ptr getelementptr inbounds inrange(-16, 112) (i8, ptr @_ZTVNSt7__cxx1115basic_stringbufIcSt11char_traitsIcESaIcEEE, i64 16), ptr %35, align 8, !tbaa !33
  %36 = getelementptr inbounds nuw i8, ptr %5, i64 80
  %37 = load ptr, ptr %36, align 8, !tbaa !54
  %38 = getelementptr inbounds nuw i8, ptr %5, i64 96
  %39 = icmp eq ptr %37, %38
  br i1 %39, label %_ZNKSt7__cxx1112basic_stringIcSt11char_traitsIcESaIcEE11_M_is_localEv.exit.thread.i.i.i.i.i.i, label %_ZNKSt7__cxx1112basic_stringIcSt11char_traitsIcESaIcEE11_M_is_localEv.exit.i.i.i.i.i.i

_ZNKSt7__cxx1112basic_stringIcSt11char_traitsIcESaIcEE11_M_is_localEv.exit.thread.i.i.i.i.i.i: ; preds = %_ZNSt7__cxx1112basic_stringIcSt11char_traitsIcESaIcEED2Ev.exit.i
  %40 = getelementptr inbounds nuw i8, ptr %5, i64 88
  %41 = load i64, ptr %40, align 8, !tbaa !55
  %42 = icmp ult i64 %41, 16
  call void @llvm.assume(i1 %42)
  br label %_ZN5boost23basic_wrap_stringstreamIcED2Ev.exit

_ZNKSt7__cxx1112basic_stringIcSt11char_traitsIcESaIcEE11_M_is_localEv.exit.i.i.i.i.i.i: ; preds = %_ZNSt7__cxx1112basic_stringIcSt11char_traitsIcESaIcEED2Ev.exit.i
  %43 = load i64, ptr %38, align 8, !tbaa !64
  %44 = add i64 %43, 1
  call void @_ZdlPvm(ptr noundef %37, i64 noundef %44) #31
  br label %_ZN5boost23basic_wrap_stringstreamIcED2Ev.exit

_ZN5boost23basic_wrap_stringstreamIcED2Ev.exit:   ; preds = %_ZNKSt7__cxx1112basic_stringIcSt11char_traitsIcESaIcEE11_M_is_localEv.exit.thread.i.i.i.i.i.i, %_ZNKSt7__cxx1112basic_stringIcSt11char_traitsIcESaIcEE11_M_is_localEv.exit.i.i.i.i.i.i
  store ptr getelementptr inbounds inrange(-16, 112) (i8, ptr @_ZTVSt15basic_streambufIcSt11char_traitsIcEE, i64 16), ptr %35, align 8, !tbaa !33
  %45 = getelementptr inbounds nuw i8, ptr %5, i64 64
  call void @_ZNSt6localeD1Ev(ptr noundef nonnull align 8 dereferenceable(8) %45) #27
  %46 = getelementptr inbounds i8, ptr %5, i64 112
  call void @_ZNSt8ios_baseD2Ev(ptr noundef nonnull align 8 dereferenceable(264) %46) #27
  call void @llvm.lifetime.end.p0(i64 408, ptr nonnull %5) #27
  ret void

47:                                               ; preds = %3, %14, %_ZN5boostlsIcNS_9unit_test12lazy_ostreamEEERNS_23basic_wrap_stringstreamIT_EES6_RKT0_.exit
  %48 = landingpad { ptr, i32 }
          cleanup
  call void @_ZN5boost23basic_wrap_stringstreamIcED2Ev(ptr noundef nonnull align 8 dereferenceable(408) %5) #27
  call void @llvm.lifetime.end.p0(i64 408, ptr nonnull %5) #27
  resume { ptr, i32 } %48
}